(dp0
S'APW19980227.0487'
p1
(dp2
Ve45
p3
Vei427
p4
sVe44
p5
Vei426
p6
sVe39
p7
Vei421
p8
sVe4
p9
Vei391
p10
sVe38
p11
Vei420
p12
sVe19
p13
Vei403
p14
sVe36
p15
Vei418
p16
sVe35
p17
Vei417
p18
sVe34
p19
Vei416
p20
sVe33
p21
Vei415
p22
sVe30
p23
Vei414
p24
sVe10
p25
Vei395
p26
sVe13
p27
Vei398
p28
sVe12
p29
Vei397
p30
sVe15
p31
Vei399
p32
sVe17
p33
Vei401
p34
sVe16
p35
Vei400
p36
sVe59
p37
Vei440
p38
sVe58
p39
Vei439
p40
sVe54
p41
Vei436
p42
sVe57
p43
Vei438
p44
sVe56
p45
Vei437
p46
sVe51
p47
Vei433
p48
sVe50
p49
Vei432
p50
sVe53
p51
Vei435
p52
sVe52
p53
Vei434
p54
sVe42
p55
Vei424
p56
sVe37
p57
Vei419
p58
sVe21
p59
Vei405
p60
sVe18
p61
Vei402
p62
sVe40
p63
Vei422
p64
sVe41
p65
Vei423
p66
sVe9
p67
Vei394
p68
sVe8
p69
Vei393
p70
sVe46
p71
Vei428
p72
sVe7
p73
Vei392
p74
sVe1
p75
Vei388
p76
sVe3
p77
Vei390
p78
sVe2
p79
Vei389
p80
sVe24
p81
Vei408
p82
sVe43
p83
Vei425
p84
sVe26
p85
Vei410
p86
sVe27
p87
Vei411
p88
sVe20
p89
Vei404
p90
sVe47
p91
Vei429
p92
sVe22
p93
Vei406
p94
sVe23
p95
Vei407
p96
sVe48
p97
Vei430
p98
sVe49
p99
Vei431
p100
sVe28
p101
Vei412
p102
sVe29
p103
Vei413
p104
sVe25
p105
Vei409
p106
sVe60
p107
Vei441
p108
sVe61
p109
Vei442
p110
sVe62
p111
Vei443
p112
sVe63
p113
Vei444
p114
sVe64
p115
Vei445
p116
sVe65
p117
Vei446
p118
sVe66
p119
Vei447
p120
ssS'CNN19980213.2130.0155'
p121
(dp122
Ve80
p123
Vei632
p124
sVe137
p125
Vei629
p126
sVe141
p127
Vei631
p128
sVe39
p129
Vei599
p130
sVe74
p131
Vei628
p132
sVe19
p133
Vei585
p134
sVe36
p135
Vei598
p136
sVe35
p137
Vei597
p138
sVe34
p139
Vei596
p140
sVe31
p141
Vei594
p142
sVe10
p143
Vei581
p144
sVe13
p145
Vei582
p146
sVe15
p147
Vei583
p148
sVe84
p149
Vei635
p150
sVe17
p151
Vei584
p152
sVe78
p153
Vei630
p154
sVe58
p155
Vei613
p156
sVe73
p157
Vei627
p158
sVe54
p159
Vei610
p160
sVe57
p161
Vei612
p162
sVe56
p163
Vei611
p164
sVe50
p165
Vei608
p166
sVe52
p167
Vei609
p168
sVe128
p169
Vei622
p170
sVe129
p171
Vei623
p172
sVe47
p173
Vei605
p174
sVe103
p175
Vei577
p176
sVe120
p177
Vei614
p178
sVe40
p179
Vei601
p180
sVe122
p181
Vei616
p182
sVe121
p183
Vei615
p184
sVe146
p185
Vei636
p186
sVe9
p187
Vei580
p188
sVe72
p189
Vei626
p190
sVe4
p191
Vei576
p192
sVe7
p193
Vei579
p194
sVe6
p195
Vei578
p196
sVe1
p197
Vei573
p198
sVe144
p199
Vei633
p200
sVe3
p201
Vei575
p202
sVe2
p203
Vei574
p204
sVe24
p205
Vei589
p206
sVe43
p207
Vei602
p208
sVe26
p209
Vei590
p210
sVe70
p211
Vei625
p212
sVe46
p213
Vei604
p214
sVe21
p215
Vei586
p216
sVe22
p217
Vei587
p218
sVe23
p219
Vei588
p220
sVe45
p221
Vei603
p222
sVe28
p223
Vei592
p224
sVe29
p225
Vei593
p226
sVe68
p227
Vei624
p228
sVe87
p229
Vei637
p230
sVe117
p231
Vei606
p232
sVe82
p233
Vei634
p234
sVe113
p235
Vei600
p236
sVe60
p237
Vei617
p238
sVe61
p239
Vei618
p240
sVe62
p241
Vei619
p242
sVe63
p243
Vei620
p244
sVe118
p245
Vei607
p246
sVe67
p247
Vei621
p248
ssS'APW19980213.1320'
p249
(dp250
Ve38
p251
Vei351
p252
sVe37
p253
Vei347
p254
sVe18
p255
Vei346
p256
sVe35
p257
Vei337
p258
sVe34
p259
Vei335
p260
sVe33
p261
Vei333
p262
sVe32
p263
Vei332
p264
sVe31
p265
Vei330
p266
sVe30
p267
Vei328
p268
sVe11
p269
Vei338
p270
sVe10
p271
Vei336
p272
sVe12
p273
Vei354
p274
sVe14
p275
Vei342
p276
sVe17
p277
Vei345
p278
sVe16
p279
Vei344
p280
sVe229
p281
Vei355
p282
sVe9
p283
Vei334
p284
sVe8
p285
Vei331
p286
sVe5
p287
Vei326
p288
sVe7
p289
Vei329
p290
sVe1
p291
Vei321
p292
sVe2
p293
Vei322
p294
sVe25
p295
Vei352
p296
sVe26
p297
Vei324
p298
sVe27
p299
Vei323
p300
sVe20
p301
Vei348
p302
sVe21
p303
Vei349
p304
sVe22
p305
Vei350
p306
sVe28
p307
Vei325
p308
sVe29
p309
Vei327
p310
sVe65
p311
Vei341
p312
ssS'CNN19980222.1130.0084'
p313
(dp314
Ve35
p315
Vei165
p316
sVe46
p317
Vei169
p318
sVe129
p319
Vei168
p320
sVe141
p321
Vei173
p322
sVe13
p323
Vei170
p324
sVe14
p325
Vei172
p326
sVe142
p327
Vei174
p328
sVe73
p329
Vei167
p330
sVe9
p331
Vei166
p332
sVe8
p333
Vei164
p334
sVe96
p335
Vei159
p336
sVe5
p337
Vei160
p338
sVe4
p339
Vei158
p340
sVe7
p341
Vei163
p342
sVe6
p343
Vei162
p344
sVe1
p345
Vei156
p346
sVe140
p347
Vei171
p348
sVe2
p349
Vei157
p350
ssS'APW19980227.0489'
p351
(dp352
Ve19
p353
Vei2071
p354
sVe36
p355
Vei2086
p356
sVe35
p357
Vei2085
p358
sVe34
p359
Vei2084
p360
sVe33
p361
Vei2083
p362
sVe32
p363
Vei2082
p364
sVe31
p365
Vei2081
p366
sVe30
p367
Vei2080
p368
sVe11
p369
Vei2064
p370
sVe10
p371
Vei2063
p372
sVe12
p373
Vei2065
p374
sVe15
p375
Vei2067
p376
sVe14
p377
Vei2066
p378
sVe17
p379
Vei2069
p380
sVe16
p381
Vei2068
p382
sVe18
p383
Vei2070
p384
sVe9
p385
Vei2062
p386
sVe8
p387
Vei2061
p388
sVe5
p389
Vei2058
p390
sVe4
p391
Vei2057
p392
sVe7
p393
Vei2060
p394
sVe6
p395
Vei2059
p396
sVe3
p397
Vei2056
p398
sVe2
p399
Vei2055
p400
sVe24
p401
Vei2074
p402
sVe25
p403
Vei2075
p404
sVe26
p405
Vei2087
p406
sVe27
p407
Vei2077
p408
sVe20
p409
Vei2072
p410
sVe22
p411
Vei2073
p412
sVe28
p413
Vei2078
p414
sVe29
p415
Vei2079
p416
ssS'ABC19980108.1830.0711'
p417
(dp418
Ve17
p419
Vei389
p420
sVe375
p421
Vei437
p422
sVe374
p423
Vei436
p424
sVe376
p425
Vei438
p426
sVe371
p427
Vei433
p428
sVe368
p429
Vei430
p430
sVe37
p431
Vei402
p432
sVe18
p433
Vei390
p434
sVe34
p435
Vei401
p436
sVe33
p437
Vei400
p438
sVe32
p439
Vei399
p440
sVe30
p441
Vei398
p442
sVe11
p443
Vei384
p444
sVe10
p445
Vei381
p446
sVe12
p447
Vei386
p448
sVe14
p449
Vei387
p450
sVe39
p451
Vei405
p452
sVe16
p453
Vei388
p454
sVe91
p455
Vei404
p456
sVe59
p457
Vei424
p458
sVe55
p459
Vei420
p460
sVe147
p461
Vei382
p462
sVe56
p463
Vei422
p464
sVe50
p465
Vei415
p466
sVe53
p467
Vei418
p468
sVe52
p469
Vei417
p470
sVe19
p471
Vei391
p472
sVe40
p473
Vei406
p474
sVe27
p475
Vei396
p476
sVe9
p477
Vei380
p478
sVe54
p479
Vei419
p480
sVe46
p481
Vei412
p482
sVe4
p483
Vei378
p484
sVe7
p485
Vei379
p486
sVe369
p487
Vei431
p488
sVe1
p489
Vei375
p490
sVe3
p491
Vei377
p492
sVe42
p493
Vei408
p494
sVe43
p495
Vei409
p496
sVe26
p497
Vei395
p498
sVe41
p499
Vei407
p500
sVe20
p501
Vei392
p502
sVe21
p503
Vei393
p504
sVe44
p505
Vei410
p506
sVe48
p507
Vei414
p508
sVe28
p509
Vei397
p510
sVe66
p511
Vei428
p512
sVe60
p513
Vei425
p514
sVe153
p515
Vei383
p516
sVe64
p517
Vei426
p518
sVe65
p519
Vei427
p520
sVe88
p521
Vei403
p522
sVe67
p523
Vei429
p524
ssS'PRI19980205.2000.1890'
p525
(dp526
Ve37
p527
Vei172
p528
sVe34
p529
Vei171
p530
sVe33
p531
Vei170
p532
sVe32
p533
Vei160
p534
sVe11
p535
Vei167
p536
sVe13
p537
Vei168
p538
sVe14
p539
Vei169
p540
sVe17
p541
Vei173
p542
sVe38
p543
Vei177
p544
sVe19
p545
Vei174
p546
sVe9
p547
Vei166
p548
sVe8
p549
Vei165
p550
sVe4
p551
Vei162
p552
sVe7
p553
Vei164
p554
sVe6
p555
Vei163
p556
sVe1
p557
Vei158
p558
sVe3
p559
Vei161
p560
sVe2
p561
Vei159
p562
sVe24
p563
Vei176
p564
sVe27
p565
Vei178
p566
sVe21
p567
Vei175
p568
sVe28
p569
Vei179
p570
sVe29
p571
Vei180
p572
ssS'PRI19980205.2000.1998'
p573
(dp574
Ve19
p575
Vei2013
p576
sVe24
p577
Vei2016
p578
sVe41
p579
Vei2008
p580
sVe22
p581
Vei2015
p582
sVe25
p583
Vei2017
p584
sVe10
p585
Vei2009
p586
sVe12
p587
Vei2011
p588
sVe28
p589
Vei2019
p590
sVe14
p591
Vei2012
p592
sVe49
p593
Vei2018
p594
sVe9
p595
Vei2007
p596
sVe4
p597
Vei2003
p598
sVe7
p599
Vei2006
p600
sVe6
p601
Vei2005
p602
sVe1
p603
Vei2001
p604
sVe50
p605
Vei2020
p606
sVe51
p607
Vei2021
p608
ssS'APW19980227.0468'
p609
(dp610
Ve10
p611
Vei114
p612
sVe91
p613
Vei109
p614
sVe79
p615
Vei115
p616
sVe9
p617
Vei113
p618
sVe8
p619
Vei112
p620
sVe55
p621
Vei110
p622
sVe7
p623
Vei111
p624
sVe6
p625
Vei108
p626
sVe1
p627
Vei104
p628
sVe3
p629
Vei107
p630
sVe2
p631
Vei116
p632
ssS'ABC19980120.1830.0957'
p633
(dp634
Ve69
p635
Vei463
p636
sVe378
p637
Vei456
p638
sVe38
p639
Vei441
p640
sVe18
p641
Vei426
p642
sVe35
p643
Vei439
p644
sVe32
p645
Vei437
p646
sVe30
p647
Vei435
p648
sVe11
p649
Vei423
p650
sVe15
p651
Vei424
p652
sVe16
p653
Vei425
p654
sVe90
p655
Vei427
p656
sVe382
p657
Vei467
p658
sVe383
p659
Vei468
p660
sVe59
p661
Vei454
p662
sVe385
p663
Vei470
p664
sVe97
p665
Vei433
p666
sVe99
p667
Vei432
p668
sVe384
p669
Vei469
p670
sVe57
p671
Vei453
p672
sVe56
p673
Vei452
p674
sVe51
p675
Vei449
p676
sVe50
p677
Vei448
p678
sVe53
p679
Vei451
p680
sVe52
p681
Vei450
p682
sVe42
p683
Vei443
p684
sVe109
p685
Vei457
p686
sVe103
p687
Vei442
p688
sVe100
p689
Vei438
p690
sVe107
p691
Vei446
p692
sVe381
p693
Vei466
p694
sVe9
p695
Vei422
p696
sVe8
p697
Vei421
p698
sVe4
p699
Vei418
p700
sVe7
p701
Vei420
p702
sVe1
p703
Vei415
p704
sVe240
p705
Vei434
p706
sVe2
p707
Vei417
p708
sVe24
p709
Vei430
p710
sVe26
p711
Vei431
p712
sVe44
p713
Vei444
p714
sVe22
p715
Vei429
p716
sVe45
p717
Vei445
p718
sVe48
p719
Vei447
p720
sVe86
p721
Vei416
p722
sVe87
p723
Vei419
p724
sVe112
p725
Vei462
p726
sVe60
p727
Vei455
p728
sVe63
p729
Vei458
p730
sVe64
p731
Vei459
p732
sVe66
p733
Vei460
p734
sVe67
p735
Vei461
p736
ssS'NYT19980212.0019'
p737
(dp738
Ve39
p739
Vei239
p740
sVe19
p741
Vei225
p742
sVe18
p743
Vei224
p744
sVe35
p745
Vei237
p746
sVe34
p747
Vei236
p748
sVe30
p749
Vei235
p750
sVe11
p751
Vei218
p752
sVe10
p753
Vei217
p754
sVe13
p755
Vei220
p756
sVe12
p757
Vei219
p758
sVe15
p759
Vei222
p760
sVe14
p761
Vei221
p762
sVe17
p763
Vei223
p764
sVe51
p765
Vei230
p766
sVe50
p767
Vei227
p768
sVe36
p769
Vei238
p770
sVe40
p771
Vei240
p772
sVe9
p773
Vei215
p774
sVe4
p775
Vei212
p776
sVe7
p777
Vei214
p778
sVe6
p779
Vei213
p780
sVe1
p781
Vei210
p782
sVe2
p783
Vei211
p784
sVe25
p785
Vei231
p786
sVe26
p787
Vei232
p788
sVe27
p789
Vei233
p790
sVe20
p791
Vei226
p792
sVe21
p793
Vei228
p794
sVe22
p795
Vei229
p796
sVe49
p797
Vei216
p798
sVe29
p799
Vei234
p800
ssS'APW19980418.0210'
p801
(dp802
Ve24
p803
Vei2146
p804
sVe25
p805
Vei2147
p806
sVe26
p807
Vei2148
p808
sVe27
p809
Vei2149
p810
sVe21
p811
Vei2141
p812
sVe22
p813
Vei2142
p814
sVe23
p815
Vei2144
p816
sVe11
p817
Vei2132
p818
sVe12
p819
Vei2133
p820
sVe15
p821
Vei2136
p822
sVe14
p823
Vei2134
p824
sVe17
p825
Vei2140
p826
sVe16
p827
Vei2138
p828
sVe9
p829
Vei2131
p830
sVe8
p831
Vei2130
p832
sVe2003
p833
Vei2139
p834
sVe4
p835
Vei2128
p836
sVe7
p837
Vei2129
p838
sVe2000
p839
Vei2135
p840
sVe3
p841
Vei2127
p842
sVe2
p843
Vei2126
p844
ssS'CNN19980126.1600.1104'
p845
(dp846
Ve35
p847
Vei254
p848
sVe30
p849
Vei284
p850
sVe206
p851
Vei288
p852
sVe14
p853
Vei268
p854
sVe39
p855
Vei258
p856
sVe38
p857
Vei256
p858
sVe51
p859
Vei281
p860
sVe50
p861
Vei280
p862
sVe53
p863
Vei286
p864
sVe52
p865
Vei285
p866
sVe24
p867
Vei276
p868
sVe205
p869
Vei287
p870
sVe204
p871
Vei283
p872
sVe25
p873
Vei277
p874
sVe27
p875
Vei279
p876
sVe9
p877
Vei265
p878
sVe4
p879
Vei261
p880
sVe7
p881
Vei262
p882
sVe1
p883
Vei255
p884
sVe3
p885
Vei257
p886
sVe42
p887
Vei263
p888
sVe43
p889
Vei264
p890
sVe40
p891
Vei260
p892
sVe41
p893
Vei259
p894
sVe46
p895
Vei269
p896
sVe22
p897
Vei274
p898
sVe48
p899
Vei275
p900
sVe29
p901
Vei282
p902
sVe172
p903
Vei273
p904
ssS'APW19980227.0494'
p905
(dp906
Ve121
p907
Vei2374
p908
sVe111
p909
Vei2367
p910
sVe83
p911
Vei2351
p912
sVe114
p913
Vei2370
p914
sVe118
p915
Vei2372
p916
sVe37
p917
Vei2324
p918
sVe18
p919
Vei2317
p920
sVe34
p921
Vei2323
p922
sVe32
p923
Vei2322
p924
sVe87
p925
Vei2354
p926
sVe11
p927
Vei2312
p928
sVe10
p929
Vei2311
p930
sVe12
p931
Vei2313
p932
sVe15
p933
Vei2314
p934
sVe17
p935
Vei2316
p936
sVe16
p937
Vei2315
p938
sVe90
p939
Vei2356
p940
sVe93
p941
Vei2358
p942
sVe92
p943
Vei2357
p944
sVe59
p945
Vei2337
p946
sVe58
p947
Vei2336
p948
sVe55
p949
Vei2334
p950
sVe72
p951
Vei2346
p952
sVe71
p953
Vei2345
p954
sVe56
p955
Vei2335
p956
sVe77
p957
Vei2349
p958
sVe50
p959
Vei2332
p960
sVe53
p961
Vei2333
p962
sVe74
p963
Vei2347
p964
sVe112
p965
Vei2368
p966
sVe102
p967
Vei2363
p968
sVe125
p969
Vei2376
p970
sVe101
p971
Vei2362
p972
sVe106
p973
Vei2365
p974
sVe107
p975
Vei2366
p976
sVe105
p977
Vei2364
p978
sVe99
p979
Vei2361
p980
sVe8
p981
Vei2310
p982
sVe98
p983
Vei2359
p984
sVe4
p985
Vei2309
p986
sVe123
p987
Vei2375
p988
sVe1
p989
Vei2306
p990
sVe3
p991
Vei2308
p992
sVe2
p993
Vei2307
p994
sVe43
p995
Vei2326
p996
sVe41
p997
Vei2325
p998
sVe20
p999
Vei2318
p1000
sVe22
p1001
Vei2319
p1002
sVe44
p1003
Vei2327
p1004
sVe45
p1005
Vei2328
p1006
sVe119
p1007
Vei2373
p1008
sVe46
p1009
Vei2329
p1010
sVe49
p1011
Vei2331
p1012
sVe28
p1013
Vei2320
p1014
sVe29
p1015
Vei2321
p1016
sVe65
p1017
Vei2341
p1018
sVe86
p1019
Vei2353
p1020
sVe69
p1021
Vei2343
p1022
sVe84
p1023
Vei2352
p1024
sVe116
p1025
Vei2371
p1026
sVe82
p1027
Vei2350
p1028
sVe75
p1029
Vei2348
p1030
sVe113
p1031
Vei2369
p1032
sVe158
p1033
Vei2360
p1034
sVe61
p1035
Vei2338
p1036
sVe62
p1037
Vei2339
p1038
sVe89
p1039
Vei2355
p1040
sVe64
p1041
Vei2340
p1042
sVe48
p1043
Vei2330
p1044
sVe66
p1045
Vei2342
p1046
sVe156
p1047
Vei2344
p1048
ssS'NYT19980402.0453'
p1049
(dp1050
Ve38
p1051
Vei2262
p1052
sVe18
p1053
Vei2238
p1054
sVe35
p1055
Vei2259
p1056
sVe34
p1057
Vei2258
p1058
sVe33
p1059
Vei2256
p1060
sVe2025
p1061
Vei2234
p1062
sVe31
p1063
Vei2254
p1064
sVe30
p1065
Vei2252
p1066
sVe10
p1067
Vei2227
p1068
sVe13
p1069
Vei2231
p1070
sVe12
p1071
Vei2229
p1072
sVe15
p1073
Vei2236
p1074
sVe14
p1075
Vei2235
p1076
sVe17
p1077
Vei2237
p1078
sVe2148
p1079
Vei2253
p1080
sVe59
p1081
Vei2239
p1082
sVe54
p1083
Vei2233
p1084
sVe51
p1085
Vei2230
p1086
sVe50
p1087
Vei2228
p1088
sVe53
p1089
Vei2232
p1090
sVe42
p1091
Vei2266
p1092
sVe36
p1093
Vei2260
p1094
sVe40
p1095
Vei2263
p1096
sVe2093
p1097
Vei2244
p1098
sVe41
p1099
Vei2264
p1100
sVe9
p1101
Vei2226
p1102
sVe8
p1103
Vei2225
p1104
sVe2065
p1105
Vei2240
p1106
sVe5
p1107
Vei2221
p1108
sVe4
p1109
Vei2220
p1110
sVe7
p1111
Vei2223
p1112
sVe6
p1113
Vei2222
p1114
sVe1
p1115
Vei2217
p1116
sVe2
p1117
Vei2219
p1118
sVe24
p1119
Vei2247
p1120
sVe25
p1121
Vei2248
p1122
sVe26
p1123
Vei2249
p1124
sVe27
p1125
Vei2250
p1126
sVe21
p1127
Vei2242
p1128
sVe22
p1129
Vei2245
p1130
sVe45
p1131
Vei2218
p1132
sVe2060
p1133
Vei2241
p1134
sVe23
p1135
Vei2246
p1136
sVe29
p1137
Vei2251
p1138
sVe2164
p1139
Vei2257
p1140
sVe2072
p1141
Vei2243
p1142
sVe60
p1143
Vei2265
p1144
sVe65
p1145
Vei2261
p1146
sVe66
p1147
Vei2255
p1148
sVe67
p1149
Vei2224
p1150
ssS'APW19980213.1380'
p1151
(dp1152
Ve22
p1153
Vei331
p1154
sVe276
p1155
Vei338
p1156
sVe17
p1157
Vei326
p1158
sVe18
p1159
Vei328
p1160
sVe11
p1161
Vei317
p1162
sVe10
p1163
Vei316
p1164
sVe13
p1165
Vei319
p1166
sVe12
p1167
Vei318
p1168
sVe15
p1169
Vei323
p1170
sVe14
p1171
Vei322
p1172
sVe39
p1173
Vei304
p1174
sVe162
p1175
Vei320
p1176
sVe281
p1177
Vei339
p1178
sVe54
p1179
Vei340
p1180
sVe51
p1181
Vei327
p1182
sVe50
p1183
Vei325
p1184
sVe25
p1185
Vei333
p1186
sVe26
p1187
Vei334
p1188
sVe27
p1189
Vei335
p1190
sVe9
p1191
Vei315
p1192
sVe8
p1193
Vei314
p1194
sVe5
p1195
Vei311
p1196
sVe4
p1197
Vei310
p1198
sVe6
p1199
Vei313
p1200
sVe1
p1201
Vei305
p1202
sVe3
p1203
Vei308
p1204
sVe2
p1205
Vei307
p1206
sVe42
p1207
Vei306
p1208
sVe43
p1209
Vei309
p1210
sVe40
p1211
Vei303
p1212
sVe41
p1213
Vei302
p1214
sVe20
p1215
Vei329
p1216
sVe47
p1217
Vei321
p1218
sVe44
p1219
Vei312
p1220
sVe23
p1221
Vei332
p1222
sVe48
p1223
Vei324
p1224
sVe21
p1225
Vei330
p1226
sVe28
p1227
Vei336
p1228
sVe29
p1229
Vei337
p1230
ssS'ea980120.1830.0071'
p1231
(dp1232
Ve38
p1233
Vei232
p1234
sVe36
p1235
Vei231
p1236
sVe34
p1237
Vei230
p1238
sVe33
p1239
Vei229
p1240
sVe32
p1241
Vei227
p1242
sVe31
p1243
Vei226
p1244
sVe11
p1245
Vei208
p1246
sVe15
p1247
Vei209
p1248
sVe17
p1249
Vei216
p1250
sVe16
p1251
Vei214
p1252
sVe72
p1253
Vei235
p1254
sVe70
p1255
Vei228
p1256
sVe42
p1257
Vei237
p1258
sVe43
p1259
Vei238
p1260
sVe101
p1261
Vei211
p1262
sVe40
p1263
Vei234
p1264
sVe9
p1265
Vei207
p1266
sVe8
p1267
Vei206
p1268
sVe4
p1269
Vei203
p1270
sVe6
p1271
Vei204
p1272
sVe3
p1273
Vei202
p1274
sVe24
p1275
Vei220
p1276
sVe25
p1277
Vei221
p1278
sVe26
p1279
Vei222
p1280
sVe41
p1281
Vei236
p1282
sVe46
p1283
Vei240
p1284
sVe44
p1285
Vei239
p1286
sVe22
p1287
Vei218
p1288
sVe23
p1289
Vei219
p1290
sVe49
p1291
Vei241
p1292
sVe28
p1293
Vei223
p1294
sVe29
p1295
Vei224
p1296
sVe69
p1297
Vei225
p1298
sVe117
p1299
Vei243
p1300
sVe116
p1301
Vei242
p1302
sVe61
p1303
Vei199
p1304
sVe62
p1305
Vei200
p1306
sVe65
p1307
Vei205
p1308
sVe66
p1309
Vei212
p1310
sVe67
p1311
Vei215
p1312
ssS'CNN19980227.2130.0067'
p1313
(dp1314
Ve49
p1315
Vei2025
p1316
sVe138
p1317
Vei2002
p1318
sVe38
p1319
Vei2019
p1320
sVe37
p1321
Vei2018
p1322
sVe36
p1323
Vei2017
p1324
sVe34
p1325
Vei2016
p1326
sVe33
p1327
Vei2015
p1328
sVe30
p1329
Vei2014
p1330
sVe11
p1331
Vei2003
p1332
sVe12
p1333
Vei2004
p1334
sVe17
p1335
Vei2007
p1336
sVe16
p1337
Vei2006
p1338
sVe91
p1339
Vei1999
p1340
sVe79
p1341
Vei2050
p1342
sVe149
p1343
Vei2005
p1344
sVe55
p1345
Vei2031
p1346
sVe98
p1347
Vei2008
p1348
sVe77
p1349
Vei2048
p1350
sVe50
p1351
Vei2026
p1352
sVe53
p1353
Vei2028
p1354
sVe74
p1355
Vei2046
p1356
sVe82
p1357
Vei2052
p1358
sVe109
p1359
Vei2039
p1360
sVe102
p1361
Vei2027
p1362
sVe101
p1363
Vei2023
p1364
sVe106
p1365
Vei2034
p1366
sVe104
p1367
Vei2029
p1368
sVe105
p1369
Vei2032
p1370
sVe73
p1371
Vei2045
p1372
sVe8
p1373
Vei2001
p1374
sVe54
p1375
Vei2030
p1376
sVe4
p1377
Vei1998
p1378
sVe6
p1379
Vei2000
p1380
sVe42
p1381
Vei2020
p1382
sVe25
p1383
Vei2011
p1384
sVe27
p1385
Vei2012
p1386
sVe46
p1387
Vei2024
p1388
sVe44
p1389
Vei2021
p1390
sVe22
p1391
Vei2009
p1392
sVe23
p1393
Vei2010
p1394
sVe72
p1395
Vei2043
p1396
sVe45
p1397
Vei2022
p1398
sVe28
p1399
Vei2013
p1400
sVe76
p1401
Vei2047
p1402
sVe68
p1403
Vei2041
p1404
sVe69
p1405
Vei2042
p1406
sVe111
p1407
Vei2049
p1408
sVe110
p1409
Vei2044
p1410
sVe80
p1411
Vei2051
p1412
sVe60
p1413
Vei2033
p1414
sVe61
p1415
Vei2035
p1416
sVe63
p1417
Vei2036
p1418
sVe64
p1419
Vei2037
p1420
sVe66
p1421
Vei2038
p1422
sVe67
p1423
Vei2040
p1424
ssS'ea980120.1830.0456'
p1425
(dp1426
Ve18
p1427
Vei105
p1428
sVe20
p1429
Vei111
p1430
sVe11
p1431
Vei109
p1432
sVe10
p1433
Vei108
p1434
sVe12
p1435
Vei110
p1436
sVe17
p1437
Vei101
p1438
sVe9
p1439
Vei107
p1440
sVe5
p1441
Vei102
p1442
sVe7
p1443
Vei104
p1444
sVe6
p1445
Vei103
p1446
sVe1
p1447
Vei99
p1448
sVe2
p1449
Vei100
p1450
ssS'ABC19980304.1830.1636'
p1451
(dp1452
Ve253
p1453
Vei284
p1454
sVe256
p1455
Vei291
p1456
sVe254
p1457
Vei289
p1458
sVe37
p1459
Vei261
p1460
sVe30
p1461
Vei288
p1462
sVe10
p1463
Vei272
p1464
sVe38
p1465
Vei262
p1466
sVe51
p1467
Vei275
p1468
sVe53
p1469
Vei279
p1470
sVe52
p1471
Vei277
p1472
sVe26
p1473
Vei282
p1474
sVe27
p1475
Vei283
p1476
sVe7
p1477
Vei266
p1478
sVe6
p1479
Vei265
p1480
sVe1
p1481
Vei258
p1482
sVe3
p1483
Vei260
p1484
sVe2
p1485
Vei259
p1486
sVe24
p1487
Vei280
p1488
sVe25
p1489
Vei281
p1490
sVe40
p1491
Vei263
p1492
sVe41
p1493
Vei264
p1494
sVe20
p1495
Vei274
p1496
sVe44
p1497
Vei269
p1498
sVe22
p1499
Vei276
p1500
sVe45
p1501
Vei270
p1502
sVe23
p1503
Vei278
p1504
sVe28
p1505
Vei285
p1506
sVe68
p1507
Vei268
p1508
ssS'APW19980308.0201'
p1509
(dp1510
Ve18
p1511
Vei204
p1512
sVe35
p1513
Vei214
p1514
sVe34
p1515
Vei213
p1516
sVe31
p1517
Vei212
p1518
sVe30
p1519
Vei211
p1520
sVe13
p1521
Vei200
p1522
sVe14
p1523
Vei201
p1524
sVe39
p1525
Vei218
p1526
sVe38
p1527
Vei217
p1528
sVe72
p1529
Vei215
p1530
sVe77
p1531
Vei199
p1532
sVe50
p1533
Vei202
p1534
sVe75
p1535
Vei196
p1536
sVe36
p1537
Vei216
p1538
sVe41
p1539
Vei220
p1540
sVe2
p1541
Vei193
p1542
sVe25
p1543
Vei207
p1544
sVe40
p1545
Vei219
p1546
sVe27
p1547
Vei208
p1548
sVe47
p1549
Vei195
p1550
sVe22
p1551
Vei205
p1552
sVe23
p1553
Vei206
p1554
sVe49
p1555
Vei198
p1556
sVe28
p1557
Vei209
p1558
sVe29
p1559
Vei210
p1560
sVe76
p1561
Vei197
p1562
sVe116
p1563
Vei203
p1564
sVe62
p1565
Vei194
p1566
ssS'APW19980219.0476'
p1567
(dp1568
Ve18
p1569
Vei2468
p1570
sVe10
p1571
Vei2462
p1572
sVe12
p1573
Vei2463
p1574
sVe15
p1575
Vei2465
p1576
sVe14
p1577
Vei2464
p1578
sVe17
p1579
Vei2467
p1580
sVe91
p1581
Vei2522
p1582
sVe90
p1583
Vei2521
p1584
sVe93
p1585
Vei2523
p1586
sVe95
p1587
Vei2525
p1588
sVe94
p1589
Vei2524
p1590
sVe148
p1591
Vei2466
p1592
sVe96
p1593
Vei2527
p1594
sVe146
p1595
Vei2459
p1596
sVe98
p1597
Vei2528
p1598
sVe2446
p1599
Vei2490
p1600
sVe2447
p1601
Vei2543
p1602
sVe2448
p1603
Vei2544
p1604
sVe159
p1605
Vei2485
p1606
sVe87
p1607
Vei2516
p1608
sVe85
p1609
Vei2514
p1610
sVe83
p1611
Vei2513
p1612
sVe80
p1613
Vei2512
p1614
sVe150
p1615
Vei2469
p1616
sVe88
p1617
Vei2517
p1618
sVe89
p1619
Vei2518
p1620
sVe2396
p1621
Vei2520
p1622
sVe158
p1623
Vei2482
p1624
sVe79
p1625
Vei2511
p1626
sVe78
p1627
Vei2510
p1628
sVe72
p1629
Vei2507
p1630
sVe71
p1631
Vei2506
p1632
sVe76
p1633
Vei2509
p1634
sVe109
p1635
Vei2536
p1636
sVe103
p1637
Vei2531
p1638
sVe101
p1639
Vei2530
p1640
sVe106
p1641
Vei2535
p1642
sVe104
p1643
Vei2532
p1644
sVe105
p1645
Vei2533
p1646
sVe9
p1647
Vei2461
p1648
sVe5
p1649
Vei2458
p1650
sVe4
p1651
Vei2457
p1652
sVe7
p1653
Vei2460
p1654
sVe1
p1655
Vei2455
p1656
sVe2
p1657
Vei2456
p1658
sVe68
p1659
Vei2504
p1660
sVe69
p1661
Vei2505
p1662
sVe157
p1663
Vei2481
p1664
sVe64
p1665
Vei2500
p1666
sVe65
p1667
Vei2502
p1668
sVe66
p1669
Vei2503
p1670
sVe59
p1671
Vei2499
p1672
sVe58
p1673
Vei2498
p1674
sVe55
p1675
Vei2495
p1676
sVe56
p1677
Vei2497
p1678
sVe53
p1679
Vei2494
p1680
sVe52
p1681
Vei2493
p1682
sVe99
p1683
Vei2529
p1684
sVe21
p1685
Vei2470
p1686
sVe42
p1687
Vei2489
p1688
sVe40
p1689
Vei2487
p1690
sVe41
p1691
Vei2488
p1692
sVe48
p1693
Vei2491
p1694
sVe49
p1695
Vei2492
p1696
sVe117
p1697
Vei2541
p1698
sVe116
p1699
Vei2540
p1700
sVe111
p1701
Vei2538
p1702
sVe110
p1703
Vei2537
p1704
sVe112
p1705
Vei2539
p1706
sVe118
p1707
Vei2542
p1708
sVe36
p1709
Vei2483
p1710
sVe33
p1711
Vei2480
p1712
sVe32
p1713
Vei2479
p1714
sVe31
p1715
Vei2478
p1716
sVe30
p1717
Vei2477
p1718
sVe39
p1719
Vei2486
p1720
sVe38
p1721
Vei2484
p1722
sVe160
p1723
Vei2501
p1724
sVe162
p1725
Vei2508
p1726
sVe164
p1727
Vei2519
p1728
sVe166
p1729
Vei2526
p1730
sVe24
p1731
Vei2473
p1732
sVe26
p1733
Vei2474
p1734
sVe27
p1735
Vei2475
p1736
sVe2227
p1737
Vei2515
p1738
sVe22
p1739
Vei2471
p1740
sVe23
p1741
Vei2472
p1742
sVe28
p1743
Vei2476
p1744
ssS'APW19980227.0476'
p1745
(dp1746
Ve1997
p1747
Vei2094
p1748
sVe1996
p1749
Vei2092
p1750
sVe16
p1751
Vei2109
p1752
sVe10
p1753
Vei2102
p1754
sVe13
p1755
Vei2105
p1756
sVe12
p1757
Vei2104
p1758
sVe1999
p1759
Vei2103
p1760
sVe1998
p1761
Vei2100
p1762
sVe14
p1763
Vei2107
p1764
sVe15
p1765
Vei2108
p1766
sVe2078
p1767
Vei2106
p1768
sVe9
p1769
Vei2101
p1770
sVe8
p1771
Vei2099
p1772
sVe5
p1773
Vei2097
p1774
sVe4
p1775
Vei2096
p1776
sVe6
p1777
Vei2098
p1778
sVe1
p1779
Vei2091
p1780
sVe3
p1781
Vei2095
p1782
sVe2
p1783
Vei2093
p1784
ssS'APW19980213.1310'
p1785
(dp1786
Ve52
p1787
Vei2042
p1788
sVe45
p1789
Vei2036
p1790
sVe18
p1791
Vei2015
p1792
sVe460
p1793
Vei2080
p1794
sVe257
p1795
Vei2031
p1796
sVe115
p1797
Vei2033
p1798
sVe319
p1799
Vei2047
p1800
sVe30
p1801
Vei2024
p1802
sVe374
p1803
Vei2056
p1804
sVe37
p1805
Vei2030
p1806
sVe36
p1807
Vei2029
p1808
sVe35
p1809
Vei2028
p1810
sVe33
p1811
Vei2027
p1812
sVe32
p1813
Vei2026
p1814
sVe31
p1815
Vei2025
p1816
sVe69
p1817
Vei2059
p1818
sVe11
p1819
Vei2008
p1820
sVe10
p1821
Vei2007
p1822
sVe13
p1823
Vei2010
p1824
sVe12
p1825
Vei2009
p1826
sVe15
p1827
Vei2012
p1828
sVe14
p1829
Vei2011
p1830
sVe17
p1831
Vei2014
p1832
sVe16
p1833
Vei2013
p1834
sVe42
p1835
Vei2034
p1836
sVe79
p1837
Vei2069
p1838
sVe78
p1839
Vei2067
p1840
sVe95
p1841
Vei2076
p1842
sVe58
p1843
Vei2046
p1844
sVe97
p1845
Vei2077
p1846
sVe387
p1847
Vei2060
p1848
sVe99
p1849
Vei2079
p1850
sVe98
p1851
Vei2078
p1852
sVe57
p1853
Vei2045
p1854
sVe70
p1855
Vei2061
p1856
sVe51
p1857
Vei2041
p1858
sVe76
p1859
Vei2066
p1860
sVe53
p1861
Vei2043
p1862
sVe74
p1863
Vei2064
p1864
sVe461
p1865
Vei2081
p1866
sVe19
p1867
Vei2016
p1868
sVe75
p1869
Vei2065
p1870
sVe25
p1871
Vei2020
p1872
sVe86
p1873
Vei2072
p1874
sVe73
p1875
Vei2063
p1876
sVe27
p1877
Vei2022
p1878
sVe9
p1879
Vei2006
p1880
sVe8
p1881
Vei2005
p1882
sVe72
p1883
Vei2062
p1884
sVe5
p1885
Vei2003
p1886
sVe4
p1887
Vei2002
p1888
sVe7
p1889
Vei2004
p1890
sVe1
p1891
Vei2000
p1892
sVe2
p1893
Vei2001
p1894
sVe24
p1895
Vei2019
p1896
sVe43
p1897
Vei2035
p1898
sVe26
p1899
Vei2021
p1900
sVe41
p1901
Vei2032
p1902
sVe46
p1903
Vei2037
p1904
sVe21
p1905
Vei2017
p1906
sVe23
p1907
Vei2018
p1908
sVe48
p1909
Vei2038
p1910
sVe49
p1911
Vei2039
p1912
sVe28
p1913
Vei2023
p1914
sVe50
p1915
Vei2040
p1916
sVe68
p1917
Vei2058
p1918
sVe87
p1919
Vei2073
p1920
sVe85
p1921
Vei2071
p1922
sVe82
p1923
Vei2070
p1924
sVe66
p1925
Vei2055
p1926
sVe60
p1927
Vei2048
p1928
sVe62
p1929
Vei2049
p1930
sVe63
p1931
Vei2050
p1932
sVe64
p1933
Vei2051
p1934
sVe65
p1935
Vei2052
p1936
sVe88
p1937
Vei2074
p1938
sVe67
p1939
Vei2057
p1940
ssS'PRI19980213.2000.0313'
p1941
(dp1942
Ve19
p1943
Vei219
p1944
sVe18
p1945
Vei218
p1946
sVe33
p1947
Vei228
p1948
sVe32
p1949
Vei227
p1950
sVe31
p1951
Vei226
p1952
sVe11
p1953
Vei214
p1954
sVe17
p1955
Vei217
p1956
sVe16
p1957
Vei216
p1958
sVe36
p1959
Vei231
p1960
sVe25
p1961
Vei224
p1962
sVe9
p1963
Vei212
p1964
sVe8
p1965
Vei211
p1966
sVe5
p1967
Vei208
p1968
sVe6
p1969
Vei209
p1970
sVe1
p1971
Vei203
p1972
sVe3
p1973
Vei205
p1974
sVe47
p1975
Vei230
p1976
sVe42
p1977
Vei207
p1978
sVe43
p1979
Vei213
p1980
sVe40
p1981
Vei204
p1982
sVe41
p1983
Vei206
p1984
sVe20
p1985
Vei221
p1986
sVe21
p1987
Vei222
p1988
sVe45
p1989
Vei220
p1990
sVe23
p1991
Vei223
p1992
sVe29
p1993
Vei225
p1994
ssS'AP900816-0139'
p1995
(dp1996
Ve252
p1997
Vei1634
p1998
sVe253
p1999
Vei1637
p2000
sVe250
p2001
Vei1627
p2002
sVe251
p2003
Vei1628
p2004
sVe256
p2005
Vei1645
p2006
sVe257
p2007
Vei1649
p2008
sVe254
p2009
Vei1638
p2010
sVe255
p2011
Vei1644
p2012
sVe258
p2013
Vei1654
p2014
sVe259
p2015
Vei1660
p2016
sVe19
p2017
Vei1547
p2018
sVe188
p2019
Vei1724
p2020
sVe11
p2021
Vei1533
p2022
sVe13
p2023
Vei1539
p2024
sVe12
p2025
Vei1534
p2026
sVe15
p2027
Vei1544
p2028
sVe14
p2029
Vei1543
p2030
sVe17
p2031
Vei1546
p2032
sVe91
p2033
Vei1636
p2034
sVe90
p2035
Vei1635
p2036
sVe95
p2037
Vei1639
p2038
sVe97
p2039
Vei1641
p2040
sVe96
p2041
Vei1640
p2042
sVe99
p2043
Vei1643
p2044
sVe98
p2045
Vei1642
p2046
sVe144
p2047
Vei1684
p2048
sVe145
p2049
Vei1685
p2050
sVe142
p2051
Vei1681
p2052
sVe143
p2053
Vei1683
p2054
sVe140
p2055
Vei1679
p2056
sVe42
p2057
Vei1574
p2058
sVe128
p2059
Vei1667
p2060
sVe129
p2061
Vei1668
p2062
sVe320
p2063
Vei1604
p2064
sVe125
p2065
Vei1663
p2066
sVe126
p2067
Vei1664
p2068
sVe127
p2069
Vei1666
p2070
sVe122
p2071
Vei1659
p2072
sVe123
p2073
Vei1661
p2074
sVe1306
p2075
Vei1692
p2076
sVe1307
p2077
Vei1690
p2078
sVe249
p2079
Vei1625
p2080
sVe248
p2081
Vei1623
p2082
sVe280
p2083
Vei1727
p2084
sVe244
p2085
Vei1616
p2086
sVe247
p2087
Vei1620
p2088
sVe246
p2089
Vei1618
p2090
sVe241
p2091
Vei1599
p2092
sVe243
p2093
Vei1613
p2094
sVe242
p2095
Vei1601
p2096
sVe86
p2097
Vei1631
p2098
sVe87
p2099
Vei1632
p2100
sVe84
p2101
Vei1626
p2102
sVe85
p2103
Vei1630
p2104
sVe83
p2105
Vei1624
p2106
sVe80
p2107
Vei1622
p2108
sVe153
p2109
Vei1695
p2110
sVe148
p2111
Vei1687
p2112
sVe154
p2113
Vei1696
p2114
sVe89
p2115
Vei1633
p2116
sVe1503
p2117
Vei1735
p2118
sVe332
p2119
Vei1629
p2120
sVe1506
p2121
Vei1741
p2122
sVe1507
p2123
Vei1742
p2124
sVe139
p2125
Vei1677
p2126
sVe138
p2127
Vei1676
p2128
sVe137
p2129
Vei1675
p2130
sVe136
p2131
Vei1674
p2132
sVe135
p2133
Vei1673
p2134
sVe134
p2135
Vei1672
p2136
sVe239
p2137
Vei1594
p2138
sVe233
p2139
Vei1588
p2140
sVe234
p2141
Vei1592
p2142
sVe237
p2143
Vei1597
p2144
sVe159
p2145
Vei1699
p2146
sVe158
p2147
Vei1698
p2148
sVe5
p2149
Vei1529
p2150
sVe190
p2151
Vei1728
p2152
sVe78
p2153
Vei1621
p2154
sVe73
p2155
Vei1615
p2156
sVe72
p2157
Vei1614
p2158
sVe71
p2159
Vei1612
p2160
sVe70
p2161
Vei1611
p2162
sVe77
p2163
Vei1619
p2164
sVe76
p2165
Vei1617
p2166
sVe109
p2167
Vei1651
p2168
sVe102
p2169
Vei1646
p2170
sVe103
p2171
Vei1647
p2172
sVe107
p2173
Vei1650
p2174
sVe104
p2175
Vei1648
p2176
sVe229
p2177
Vei1584
p2178
sVe181
p2179
Vei1719
p2180
sVe186
p2181
Vei1722
p2182
sVe8
p2183
Vei1532
p2184
sVe185
p2185
Vei1721
p2186
sVe634
p2187
Vei1564
p2188
sVe4
p2189
Vei1526
p2190
sVe221
p2191
Vei1563
p2192
sVe220
p2193
Vei1560
p2194
sVe227
p2195
Vei1581
p2196
sVe225
p2197
Vei1576
p2198
sVe224
p2199
Vei1568
p2200
sVe152
p2201
Vei1694
p2202
sVe1138
p2203
Vei1658
p2204
sVe180
p2205
Vei1718
p2206
sVe69
p2207
Vei1610
p2208
sVe61
p2209
Vei1603
p2210
sVe63
p2211
Vei1605
p2212
sVe64
p2213
Vei1606
p2214
sVe65
p2215
Vei1607
p2216
sVe66
p2217
Vei1608
p2218
sVe67
p2219
Vei1609
p2220
sVe216
p2221
Vei1556
p2222
sVe217
p2223
Vei1558
p2224
sVe214
p2225
Vei1552
p2226
sVe213
p2227
Vei1550
p2228
sVe210
p2229
Vei1542
p2230
sVe219
p2231
Vei1559
p2232
sVe223
p2233
Vei1565
p2234
sVe199
p2235
Vei1522
p2236
sVe198
p2237
Vei1738
p2238
sVe195
p2239
Vei1736
p2240
sVe194
p2241
Vei1733
p2242
sVe156
p2243
Vei1697
p2244
sVe7
p2245
Vei1531
p2246
sVe193
p2247
Vei1731
p2248
sVe192
p2249
Vei1730
p2250
sVe189
p2251
Vei1725
p2252
sVe1504
p2253
Vei1739
p2254
sVe1
p2255
Vei1523
p2256
sVe1214
p2257
Vei1671
p2258
sVe1505
p2259
Vei1740
p2260
sVe59
p2261
Vei1602
p2262
sVe58
p2263
Vei1600
p2264
sVe55
p2265
Vei1591
p2266
sVe54
p2267
Vei1590
p2268
sVe57
p2269
Vei1598
p2270
sVe56
p2271
Vei1595
p2272
sVe51
p2273
Vei1586
p2274
sVe53
p2275
Vei1589
p2276
sVe52
p2277
Vei1587
p2278
sVe201
p2279
Vei1527
p2280
sVe200
p2281
Vei1525
p2282
sVe202
p2283
Vei1528
p2284
sVe205
p2285
Vei1536
p2286
sVe204
p2287
Vei1535
p2288
sVe207
p2289
Vei1538
p2290
sVe206
p2291
Vei1537
p2292
sVe209
p2293
Vei1541
p2294
sVe208
p2295
Vei1540
p2296
sVe149
p2297
Vei1688
p2298
sVe514
p2299
Vei1545
p2300
sVe147
p2301
Vei1686
p2302
sVe3
p2303
Vei1524
p2304
sVe43
p2305
Vei1575
p2306
sVe40
p2307
Vei1572
p2308
sVe41
p2309
Vei1573
p2310
sVe47
p2311
Vei1579
p2312
sVe44
p2313
Vei1577
p2314
sVe45
p2315
Vei1578
p2316
sVe48
p2317
Vei1582
p2318
sVe49
p2319
Vei1583
p2320
sVe115
p2321
Vei1656
p2322
sVe114
p2323
Vei1655
p2324
sVe117
p2325
Vei1657
p2326
sVe111
p2327
Vei1653
p2328
sVe110
p2329
Vei1652
p2330
sVe274
p2331
Vei1712
p2332
sVe275
p2333
Vei1713
p2334
sVe276
p2335
Vei1715
p2336
sVe271
p2337
Vei1705
p2338
sVe272
p2339
Vei1707
p2340
sVe278
p2341
Vei1720
p2342
sVe279
p2343
Vei1723
p2344
sVe37
p2345
Vei1569
p2346
sVe36
p2347
Vei1567
p2348
sVe35
p2349
Vei1566
p2350
sVe33
p2351
Vei1562
p2352
sVe32
p2353
Vei1561
p2354
sVe30
p2355
Vei1557
p2356
sVe39
p2357
Vei1571
p2358
sVe38
p2359
Vei1570
p2360
sVe160
p2361
Vei1700
p2362
sVe161
p2363
Vei1701
p2364
sVe165
p2365
Vei1703
p2366
sVe166
p2367
Vei1704
p2368
sVe281
p2369
Vei1726
p2370
sVe169
p2371
Vei1706
p2372
sVe283
p2373
Vei1732
p2374
sVe282
p2375
Vei1729
p2376
sVe286
p2377
Vei1737
p2378
sVe267
p2379
Vei1682
p2380
sVe266
p2381
Vei1680
p2382
sVe265
p2383
Vei1678
p2384
sVe263
p2385
Vei1670
p2386
sVe262
p2387
Vei1669
p2388
sVe261
p2389
Vei1665
p2390
sVe260
p2391
Vei1662
p2392
sVe269
p2393
Vei1693
p2394
sVe268
p2395
Vei1689
p2396
sVe25
p2397
Vei1551
p2398
sVe26
p2399
Vei1553
p2400
sVe27
p2401
Vei1554
p2402
sVe20
p2403
Vei1548
p2404
sVe21
p2405
Vei1549
p2406
sVe29
p2407
Vei1555
p2408
sVe173
p2409
Vei1710
p2410
sVe171
p2411
Vei1709
p2412
sVe170
p2413
Vei1708
p2414
sVe177
p2415
Vei1714
p2416
sVe175
p2417
Vei1711
p2418
sVe179
p2419
Vei1717
p2420
sVe178
p2421
Vei1716
p2422
ssS'PRI19980115.2000.0186'
p2423
(dp2424
Ve1997
p2425
Vei2269
p2426
sVe1998
p2427
Vei2271
p2428
sVe19
p2429
Vei2291
p2430
sVe18
p2431
Vei2290
p2432
sVe11
p2433
Vei2279
p2434
sVe10
p2435
Vei2278
p2436
sVe13
p2437
Vei2282
p2438
sVe15
p2439
Vei2285
p2440
sVe14
p2441
Vei2284
p2442
sVe17
p2443
Vei2288
p2444
sVe2008
p2445
Vei2287
p2446
sVe2009
p2447
Vei2295
p2448
sVe2003
p2449
Vei2283
p2450
sVe2000
p2451
Vei2272
p2452
sVe2007
p2453
Vei2289
p2454
sVe2004
p2455
Vei2286
p2456
sVe24
p2457
Vei2298
p2458
sVe2195
p2459
Vei2292
p2460
sVe9
p2461
Vei2277
p2462
sVe8
p2463
Vei2276
p2464
sVe5
p2465
Vei2274
p2466
sVe4
p2467
Vei2273
p2468
sVe7
p2469
Vei2275
p2470
sVe1
p2471
Vei2268
p2472
sVe3
p2473
Vei2270
p2474
sVe2037
p2475
Vei2281
p2476
sVe20
p2477
Vei2293
p2478
sVe22
p2479
Vei2294
p2480
sVe23
p2481
Vei2296
p2482
sVe2039
p2483
Vei2297
p2484
sVe2011
p2485
Vei2300
p2486
sVe2010
p2487
Vei2299
p2488
ssS'PRI19980121.2000.2591'
p2489
(dp2490
Ve19
p2491
Vei2010
p2492
sVe25
p2493
Vei2015
p2494
sVe26
p2495
Vei2016
p2496
sVe1985
p2497
Vei1998
p2498
sVe30
p2499
Vei2019
p2500
sVe22
p2501
Vei2013
p2502
sVe1980
p2503
Vei1999
p2504
sVe1981
p2505
Vei2003
p2506
sVe11
p2507
Vei2007
p2508
sVe10
p2509
Vei2006
p2510
sVe12
p2511
Vei2008
p2512
sVe29
p2513
Vei2018
p2514
sVe1989
p2515
Vei2009
p2516
sVe8
p2517
Vei2005
p2518
sVe1983
p2519
Vei2014
p2520
sVe5
p2521
Vei2002
p2522
sVe4
p2523
Vei2001
p2524
sVe6
p2525
Vei2004
p2526
sVe2
p2527
Vei2000
p2528
ssS'NYT19980206.0466'
p2529
(dp2530
Ve19
p2531
Vei538
p2532
sVe18
p2533
Vei537
p2534
sVe23
p2535
Vei547
p2536
sVe11
p2537
Vei525
p2538
sVe13
p2539
Vei529
p2540
sVe17
p2541
Vei533
p2542
sVe16
p2543
Vei530
p2544
sVe79
p2545
Vei551
p2546
sVe59
p2547
Vei532
p2548
sVe58
p2549
Vei531
p2550
sVe54
p2551
Vei524
p2552
sVe57
p2553
Vei527
p2554
sVe56
p2555
Vei526
p2556
sVe51
p2557
Vei521
p2558
sVe50
p2559
Vei520
p2560
sVe53
p2561
Vei523
p2562
sVe52
p2563
Vei522
p2564
sVe25
p2565
Vei549
p2566
sVe8
p2567
Vei516
p2568
sVe5
p2569
Vei514
p2570
sVe6
p2571
Vei515
p2572
sVe3
p2573
Vei510
p2574
sVe2
p2575
Vei509
p2576
sVe24
p2577
Vei548
p2578
sVe43
p2579
Vei511
p2580
sVe26
p2581
Vei550
p2582
sVe27
p2583
Vei553
p2584
sVe20
p2585
Vei539
p2586
sVe21
p2587
Vei543
p2588
sVe44
p2589
Vei512
p2590
sVe45
p2591
Vei513
p2592
sVe48
p2593
Vei518
p2594
sVe49
p2595
Vei519
p2596
sVe69
p2597
Vei546
p2598
sVe83
p2599
Vei555
p2600
sVe80
p2601
Vei552
p2602
sVe81
p2603
Vei554
p2604
sVe60
p2605
Vei534
p2606
sVe61
p2607
Vei535
p2608
sVe62
p2609
Vei536
p2610
sVe63
p2611
Vei540
p2612
sVe64
p2613
Vei541
p2614
sVe65
p2615
Vei542
p2616
sVe66
p2617
Vei544
p2618
sVe67
p2619
Vei545
p2620
ssS'NYT19980206.0460'
p2621
(dp2622
Ve250
p2623
Vei2232
p2624
sVe251
p2625
Vei2240
p2626
sVe256
p2627
Vei2256
p2628
sVe257
p2629
Vei2258
p2630
sVe254
p2631
Vei2254
p2632
sVe258
p2633
Vei2262
p2634
sVe259
p2635
Vei2267
p2636
sVe10
p2637
Vei2191
p2638
sVe12
p2639
Vei2192
p2640
sVe15
p2641
Vei2193
p2642
sVe17
p2643
Vei2194
p2644
sVe93
p2645
Vei2241
p2646
sVe95
p2647
Vei2242
p2648
sVe148
p2649
Vei2265
p2650
sVe96
p2651
Vei2243
p2652
sVe99
p2653
Vei2245
p2654
sVe98
p2655
Vei2244
p2656
sVe145
p2657
Vei2263
p2658
sVe140
p2659
Vei2261
p2660
sVe122
p2661
Vei2257
p2662
sVe41
p2663
Vei2213
p2664
sVe246
p2665
Vei2225
p2666
sVe85
p2667
Vei2238
p2668
sVe395
p2669
Vei2236
p2670
sVe81
p2671
Vei2237
p2672
sVe151
p2673
Vei2266
p2674
sVe155
p2675
Vei2268
p2676
sVe89
p2677
Vei2239
p2678
sVe137
p2679
Vei2260
p2680
sVe134
p2681
Vei2259
p2682
sVe231
p2683
Vei2196
p2684
sVe232
p2685
Vei2210
p2686
sVe78
p2687
Vei2235
p2688
sVe72
p2689
Vei2233
p2690
sVe70
p2691
Vei2231
p2692
sVe75
p2693
Vei2234
p2694
sVe109
p2695
Vei2252
p2696
sVe102
p2697
Vei2248
p2698
sVe100
p2699
Vei2246
p2700
sVe101
p2701
Vei2247
p2702
sVe107
p2703
Vei2251
p2704
sVe104
p2705
Vei2249
p2706
sVe105
p2707
Vei2250
p2708
sVe183
p2709
Vei2284
p2710
sVe229
p2711
Vei2195
p2712
sVe181
p2713
Vei2283
p2714
sVe186
p2715
Vei2285
p2716
sVe187
p2717
Vei2286
p2718
sVe4
p2719
Vei2185
p2720
sVe7
p2721
Vei2187
p2722
sVe6
p2723
Vei2186
p2724
sVe1
p2725
Vei2184
p2726
sVe224
p2727
Vei2188
p2728
sVe2018
p2729
Vei2201
p2730
sVe228
p2731
Vei2189
p2732
sVe61
p2733
Vei2224
p2734
sVe62
p2735
Vei2226
p2736
sVe63
p2737
Vei2227
p2738
sVe65
p2739
Vei2228
p2740
sVe66
p2741
Vei2229
p2742
sVe356
p2743
Vei2219
p2744
sVe9
p2745
Vei2190
p2746
sVe55
p2747
Vei2222
p2748
sVe57
p2749
Vei2223
p2750
sVe53
p2751
Vei2221
p2752
sVe52
p2753
Vei2220
p2754
sVe146
p2755
Vei2264
p2756
sVe43
p2757
Vei2214
p2758
sVe40
p2759
Vei2212
p2760
sVe2162
p2761
Vei2287
p2762
sVe46
p2763
Vei2217
p2764
sVe47
p2765
Vei2218
p2766
sVe44
p2767
Vei2215
p2768
sVe45
p2769
Vei2216
p2770
sVe115
p2771
Vei2253
p2772
sVe117
p2773
Vei2255
p2774
sVe69
p2775
Vei2230
p2776
sVe37
p2777
Vei2209
p2778
sVe35
p2779
Vei2208
p2780
sVe34
p2781
Vei2207
p2782
sVe32
p2783
Vei2206
p2784
sVe31
p2785
Vei2205
p2786
sVe30
p2787
Vei2204
p2788
sVe39
p2789
Vei2211
p2790
sVe160
p2791
Vei2269
p2792
sVe162
p2793
Vei2270
p2794
sVe163
p2795
Vei2271
p2796
sVe164
p2797
Vei2272
p2798
sVe166
p2799
Vei2274
p2800
sVe167
p2801
Vei2275
p2802
sVe168
p2803
Vei2276
p2804
sVe169
p2805
Vei2277
p2806
sVe261
p2807
Vei2273
p2808
sVe24
p2809
Vei2199
p2810
sVe26
p2811
Vei2200
p2812
sVe27
p2813
Vei2202
p2814
sVe20
p2815
Vei2197
p2816
sVe23
p2817
Vei2198
p2818
sVe28
p2819
Vei2203
p2820
sVe171
p2821
Vei2278
p2822
sVe176
p2823
Vei2280
p2824
sVe174
p2825
Vei2279
p2826
sVe179
p2827
Vei2282
p2828
sVe178
p2829
Vei2281
p2830
ssS'ed980111.1130.0089'
p2831
(dp2832
Ve25
p2833
Vei154
p2834
sVe27
p2835
Vei158
p2836
sVe21
p2837
Vei152
p2838
sVe22
p2839
Vei153
p2840
sVe32
p2841
Vei167
p2842
sVe10
p2843
Vei166
p2844
sVe12
p2845
Vei169
p2846
sVe34
p2847
Vei170
p2848
sVe9
p2849
Vei165
p2850
sVe8
p2851
Vei164
p2852
sVe5
p2853
Vei160
p2854
sVe4
p2855
Vei159
p2856
sVe7
p2857
Vei163
p2858
sVe6
p2859
Vei162
p2860
sVe1
p2861
Vei155
p2862
sVe3
p2863
Vei157
p2864
sVe2
p2865
Vei156
p2866
ssS'AP900815-0044'
p2867
(dp2868
Ve253
p2869
Vei1709
p2870
sVe250
p2871
Vei1708
p2872
sVe256
p2873
Vei1712
p2874
sVe257
p2875
Vei1713
p2876
sVe254
p2877
Vei1710
p2878
sVe255
p2879
Vei1711
p2880
sVe258
p2881
Vei1714
p2882
sVe259
p2883
Vei1715
p2884
sVe9
p2885
Vei1523
p2886
sVe19
p2887
Vei1531
p2888
sVe18
p2889
Vei1530
p2890
sVe11
p2891
Vei1525
p2892
sVe10
p2893
Vei1524
p2894
sVe13
p2895
Vei1526
p2896
sVe15
p2897
Vei1527
p2898
sVe17
p2899
Vei1529
p2900
sVe16
p2901
Vei1528
p2902
sVe91
p2903
Vei1583
p2904
sVe90
p2905
Vei1582
p2906
sVe93
p2907
Vei1585
p2908
sVe92
p2909
Vei1584
p2910
sVe95
p2911
Vei1587
p2912
sVe94
p2913
Vei1586
p2914
sVe148
p2915
Vei1631
p2916
sVe96
p2917
Vei1588
p2918
sVe146
p2919
Vei1629
p2920
sVe98
p2921
Vei1590
p2922
sVe144
p2923
Vei1628
p2924
sVe145
p2925
Vei1626
p2926
sVe143
p2927
Vei1627
p2928
sVe128
p2929
Vei1615
p2930
sVe129
p2931
Vei1616
p2932
sVe124
p2933
Vei1611
p2934
sVe126
p2935
Vei1613
p2936
sVe127
p2937
Vei1614
p2938
sVe121
p2939
Vei1608
p2940
sVe122
p2941
Vei1609
p2942
sVe123
p2943
Vei1610
p2944
sVe168
p2945
Vei1646
p2946
sVe249
p2947
Vei1707
p2948
sVe248
p2949
Vei1706
p2950
sVe280
p2951
Vei1729
p2952
sVe245
p2953
Vei1703
p2954
sVe244
p2955
Vei1702
p2956
sVe247
p2957
Vei1705
p2958
sVe246
p2959
Vei1704
p2960
sVe241
p2961
Vei1699
p2962
sVe240
p2963
Vei1698
p2964
sVe243
p2965
Vei1701
p2966
sVe242
p2967
Vei1700
p2968
sVe86
p2969
Vei1579
p2970
sVe158
p2971
Vei1639
p2972
sVe84
p2973
Vei1577
p2974
sVe85
p2975
Vei1578
p2976
sVe83
p2977
Vei1576
p2978
sVe80
p2979
Vei1574
p2980
sVe81
p2981
Vei1575
p2982
sVe150
p2983
Vei1633
p2984
sVe153
p2985
Vei1635
p2986
sVe152
p2987
Vei1634
p2988
sVe155
p2989
Vei1637
p2990
sVe154
p2991
Vei1636
p2992
sVe88
p2993
Vei1581
p2994
sVe156
p2995
Vei1638
p2996
sVe139
p2997
Vei1625
p2998
sVe138
p2999
Vei1624
p3000
sVe137
p3001
Vei1623
p3002
sVe136
p3003
Vei1622
p3004
sVe1509
p3005
Vei1573
p3006
sVe133
p3007
Vei1620
p3008
sVe132
p3009
Vei1619
p3010
sVe131
p3011
Vei1618
p3012
sVe130
p3013
Vei1617
p3014
sVe238
p3015
Vei1697
p3016
sVe230
p3017
Vei1689
p3018
sVe231
p3019
Vei1690
p3020
sVe232
p3021
Vei1691
p3022
sVe1426
p3023
Vei1731
p3024
sVe234
p3025
Vei1693
p3026
sVe235
p3027
Vei1694
p3028
sVe236
p3029
Vei1695
p3030
sVe237
p3031
Vei1696
p3032
sVe159
p3033
Vei1640
p3034
sVe1078
p3035
Vei1664
p3036
sVe87
p3037
Vei1580
p3038
sVe149
p3039
Vei1632
p3040
sVe78
p3041
Vei1572
p3042
sVe73
p3043
Vei1567
p3044
sVe70
p3045
Vei1566
p3046
sVe77
p3047
Vei1571
p3048
sVe76
p3049
Vei1570
p3050
sVe75
p3051
Vei1569
p3052
sVe74
p3053
Vei1568
p3054
sVe102
p3055
Vei1594
p3056
sVe103
p3057
Vei1595
p3058
sVe100
p3059
Vei1592
p3060
sVe101
p3061
Vei1593
p3062
sVe106
p3063
Vei1597
p3064
sVe107
p3065
Vei1598
p3066
sVe104
p3067
Vei1596
p3068
sVe1362
p3069
Vei1720
p3070
sVe183
p3071
Vei1658
p3072
sVe180
p3073
Vei1655
p3074
sVe181
p3075
Vei1656
p3076
sVe186
p3077
Vei1661
p3078
sVe8
p3079
Vei1522
p3080
sVe184
p3081
Vei1659
p3082
sVe185
p3083
Vei1660
p3084
sVe223
p3085
Vei1685
p3086
sVe221
p3087
Vei1684
p3088
sVe6
p3089
Vei1520
p3090
sVe225
p3091
Vei1686
p3092
sVe182
p3093
Vei1657
p3094
sVe233
p3095
Vei1692
p3096
sVe7
p3097
Vei1521
p3098
sVe292
p3099
Vei1738
p3100
sVe229
p3101
Vei1688
p3102
sVe118
p3103
Vei1606
p3104
sVe68
p3105
Vei1564
p3106
sVe69
p3107
Vei1565
p3108
sVe60
p3109
Vei1557
p3110
sVe61
p3111
Vei1558
p3112
sVe62
p3113
Vei1559
p3114
sVe63
p3115
Vei1560
p3116
sVe64
p3117
Vei1561
p3118
sVe66
p3119
Vei1562
p3120
sVe187
p3121
Vei1662
p3122
sVe216
p3123
Vei1679
p3124
sVe217
p3125
Vei1680
p3126
sVe214
p3127
Vei1678
p3128
sVe211
p3129
Vei1677
p3130
sVe218
p3131
Vei1681
p3132
sVe219
p3133
Vei1682
p3134
sVe5
p3135
Vei1519
p3136
sVe199
p3137
Vei1668
p3138
sVe198
p3139
Vei1667
p3140
sVe196
p3141
Vei1666
p3142
sVe190
p3143
Vei1663
p3144
sVe193
p3145
Vei1665
p3146
sVe941
p3147
Vei1641
p3148
sVe220
p3149
Vei1683
p3150
sVe67
p3151
Vei1563
p3152
sVe59
p3153
Vei1556
p3154
sVe58
p3155
Vei1555
p3156
sVe54
p3157
Vei1553
p3158
sVe57
p3159
Vei1554
p3160
sVe50
p3161
Vei1549
p3162
sVe53
p3163
Vei1552
p3164
sVe52
p3165
Vei1551
p3166
sVe201
p3167
Vei1670
p3168
sVe200
p3169
Vei1669
p3170
sVe203
p3171
Vei1672
p3172
sVe134
p3173
Vei1621
p3174
sVe97
p3175
Vei1589
p3176
sVe207
p3177
Vei1674
p3178
sVe206
p3179
Vei1673
p3180
sVe209
p3181
Vei1676
p3182
sVe208
p3183
Vei1675
p3184
sVe387
p3185
Vei1537
p3186
sVe99
p3187
Vei1591
p3188
sVe147
p3189
Vei1630
p3190
sVe42
p3191
Vei1546
p3192
sVe43
p3193
Vei1547
p3194
sVe40
p3195
Vei1544
p3196
sVe41
p3197
Vei1545
p3198
sVe117
p3199
Vei1604
p3200
sVe116
p3201
Vei1603
p3202
sVe110
p3203
Vei1599
p3204
sVe113
p3205
Vei1602
p3206
sVe112
p3207
Vei1601
p3208
sVe296
p3209
Vei1742
p3210
sVe297
p3211
Vei1743
p3212
sVe294
p3213
Vei1740
p3214
sVe295
p3215
Vei1741
p3216
sVe119
p3217
Vei1607
p3218
sVe293
p3219
Vei1739
p3220
sVe290
p3221
Vei1736
p3222
sVe291
p3223
Vei1737
p3224
sVe767
p3225
Vei1605
p3226
sVe274
p3227
Vei1726
p3228
sVe722
p3229
Vei1600
p3230
sVe202
p3231
Vei1671
p3232
sVe270
p3233
Vei1724
p3234
sVe273
p3235
Vei1725
p3236
sVe1515
p3237
Vei1744
p3238
sVe279
p3239
Vei1728
p3240
sVe1514
p3241
Vei1612
p3242
sVe35
p3243
Vei1541
p3244
sVe34
p3245
Vei1540
p3246
sVe33
p3247
Vei1539
p3248
sVe30
p3249
Vei1538
p3250
sVe39
p3251
Vei1543
p3252
sVe38
p3253
Vei1542
p3254
sVe160
p3255
Vei1642
p3256
sVe165
p3257
Vei1643
p3258
sVe166
p3259
Vei1644
p3260
sVe167
p3261
Vei1645
p3262
sVe281
p3263
Vei1730
p3264
sVe169
p3265
Vei1647
p3266
sVe283
p3267
Vei1732
p3268
sVe285
p3269
Vei1734
p3270
sVe284
p3271
Vei1733
p3272
sVe286
p3273
Vei1735
p3274
sVe267
p3275
Vei1722
p3276
sVe266
p3277
Vei1721
p3278
sVe263
p3279
Vei1719
p3280
sVe262
p3281
Vei1718
p3282
sVe261
p3283
Vei1717
p3284
sVe260
p3285
Vei1716
p3286
sVe268
p3287
Vei1723
p3288
sVe26
p3289
Vei1533
p3290
sVe27
p3291
Vei1534
p3292
sVe23
p3293
Vei1532
p3294
sVe28
p3295
Vei1535
p3296
sVe29
p3297
Vei1536
p3298
sVe173
p3299
Vei1650
p3300
sVe172
p3301
Vei1649
p3302
sVe171
p3303
Vei1648
p3304
sVe177
p3305
Vei1652
p3306
sVe175
p3307
Vei1651
p3308
sVe179
p3309
Vei1654
p3310
sVe178
p3311
Vei1653
p3312
ssS'CNN19980223.1130.0960'
p3313
(dp3314
Ve37
p3315
Vei156
p3316
sVe18
p3317
Vei167
p3318
sVe26
p3319
Vei148
p3320
sVe27
p3321
Vei150
p3322
sVe33
p3323
Vei155
p3324
sVe32
p3325
Vei153
p3326
sVe11
p3327
Vei160
p3328
sVe10
p3329
Vei159
p3330
sVe13
p3331
Vei162
p3332
sVe12
p3333
Vei161
p3334
sVe28
p3335
Vei151
p3336
sVe29
p3337
Vei152
p3338
sVe39
p3339
Vei168
p3340
sVe38
p3341
Vei164
p3342
sVe34
p3343
Vei154
p3344
sVe9
p3345
Vei158
p3346
sVe15
p3347
Vei165
p3348
sVe1
p3349
Vei149
p3350
sVe14
p3351
Vei163
p3352
ssS'ABC19980114.1830.0611'
p3353
(dp3354
Ve235
p3355
Vei275
p3356
sVe236
p3357
Vei277
p3358
sVe19
p3359
Vei260
p3360
sVe18
p3361
Vei259
p3362
sVe34
p3363
Vei271
p3364
sVe33
p3365
Vei270
p3366
sVe30
p3367
Vei269
p3368
sVe10
p3369
Vei256
p3370
sVe13
p3371
Vei257
p3372
sVe15
p3373
Vei258
p3374
sVe38
p3375
Vei273
p3376
sVe36
p3377
Vei272
p3378
sVe1
p3379
Vei252
p3380
sVe3
p3381
Vei254
p3382
sVe2
p3383
Vei253
p3384
sVe24
p3385
Vei264
p3386
sVe43
p3387
Vei276
p3388
sVe26
p3389
Vei265
p3390
sVe20
p3391
Vei261
p3392
sVe21
p3393
Vei262
p3394
sVe22
p3395
Vei263
p3396
sVe28
p3397
Vei268
p3398
sVe60
p3399
Vei266
p3400
sVe61
p3401
Vei267
p3402
ssS'PRI19980306.2000.1675'
p3403
(dp3404
Ve37
p3405
Vei217
p3406
sVe36
p3407
Vei216
p3408
sVe35
p3409
Vei214
p3410
sVe32
p3411
Vei213
p3412
sVe30
p3413
Vei207
p3414
sVe11
p3415
Vei209
p3416
sVe10
p3417
Vei206
p3418
sVe13
p3419
Vei211
p3420
sVe14
p3421
Vei212
p3422
sVe16
p3423
Vei215
p3424
sVe8
p3425
Vei204
p3426
sVe5
p3427
Vei200
p3428
sVe7
p3429
Vei203
p3430
sVe6
p3431
Vei202
p3432
sVe3
p3433
Vei198
p3434
sVe2
p3435
Vei197
p3436
sVe24
p3437
Vei201
p3438
sVe25
p3439
Vei205
p3440
sVe26
p3441
Vei208
p3442
sVe27
p3443
Vei210
p3444
sVe20
p3445
Vei194
p3446
sVe21
p3447
Vei195
p3448
sVe22
p3449
Vei196
p3450
sVe23
p3451
Vei199
p3452
ssS'PRI19980216.2000.0170'
p3453
(dp3454
Ve191
p3455
Vei236
p3456
sVe37
p3457
Vei224
p3458
sVe18
p3459
Vei240
p3460
sVe13
p3461
Vei237
p3462
sVe14
p3463
Vei238
p3464
sVe16
p3465
Vei239
p3466
sVe57
p3467
Vei226
p3468
sVe75
p3469
Vei230
p3470
sVe74
p3471
Vei229
p3472
sVe19
p3473
Vei241
p3474
sVe9
p3475
Vei232
p3476
sVe8
p3477
Vei231
p3478
sVe20
p3479
Vei242
p3480
sVe7
p3481
Vei228
p3482
sVe6
p3483
Vei227
p3484
sVe1
p3485
Vei222
p3486
sVe2
p3487
Vei223
p3488
sVe27
p3489
Vei225
p3490
sVe46
p3491
Vei235
p3492
sVe22
p3493
Vei244
p3494
sVe23
p3495
Vei245
p3496
sVe28
p3497
Vei243
p3498
sVe60
p3499
Vei233
p3500
sVe186
p3501
Vei234
p3502
ss.